target datalayout = "e-m:e-p270:32:32-p271:32:32-p272:64:64-i64:64-i128:128-f80:128-n8:16:32:64-S128"
target triple = "x86_64-pc-linux-gnu"

%"class.simdjson::internal::available_implementation_list" = type { i8 }

@_ZZN8simdjson29get_available_implementationsEvE25available_implementations = internal global %"class.simdjson::internal::available_implementation_list" zeroinitializer, align 1
@_ZGVZN8simdjson29get_available_implementationsEvE25available_implementations = internal global i64 0, align 8

; Function Attrs: alwaysinline mustprogress nounwind uwtable
define linkonce_odr dso_local void @_ZN8simdjson8internal29available_implementation_listC2Ev(ptr noundef nonnull align 1 dereferenceable(1) %0) unnamed_addr #11 comdat align 2 {
  %2 = alloca ptr, align 8
  store ptr %0, ptr %2, align 8, !tbaa !67
  ret void
}

; Function Attrs: mustprogress uwtable
define dso_local noundef nonnull align 1 dereferenceable(1) ptr @_ZN8simdjson29get_available_implementationsEv() #0 personality ptr @__gxx_personality_v0 {
  %1 = alloca ptr, align 8
  %2 = alloca i32, align 4
  %3 = load atomic i8, ptr @_ZGVZN8simdjson29get_available_implementationsEvE25available_implementations acquire, align 8
  %4 = icmp eq i8 %3, 0
  br i1 %4, label %5, label %11, !prof !64

5:                                                ; preds = %0
  %6 = call i32 @__cxa_guard_acquire(ptr @_ZGVZN8simdjson29get_available_implementationsEvE25available_implementations) #10
  %7 = icmp ne i32 %6, 0
  br i1 %7, label %8, label %11

8:                                                ; preds = %5
  invoke void @_ZN8simdjson8internal29available_implementation_listC2Ev(ptr noundef nonnull align 1 dereferenceable(1) @_ZZN8simdjson29get_available_implementationsEvE25available_implementations)
          to label %9 unwind label %12

9:                                                ; preds = %8
  %10 = call ptr @llvm.invariant.start.p0(i64 1, ptr @_ZZN8simdjson29get_available_implementationsEvE25available_implementations)
  call void @__cxa_guard_release(ptr @_ZGVZN8simdjson29get_available_implementationsEvE25available_implementations) #10
  br label %11

11:                                               ; preds = %9, %5, %0
  ret ptr @_ZZN8simdjson29get_available_implementationsEvE25available_implementations

12:                                               ; preds = %8
  %13 = landingpad { ptr, i32 }
          cleanup
  %14 = extractvalue { ptr, i32 } %13, 0
  store ptr %14, ptr %1, align 8
  %15 = extractvalue { ptr, i32 } %13, 1
  store i32 %15, ptr %2, align 4
  call void @__cxa_guard_abort(ptr @_ZGVZN8simdjson29get_available_implementationsEvE25available_implementations) #10
  br label %16

16:                                               ; preds = %12
  %17 = load ptr, ptr %1, align 8
  %18 = load i32, ptr %2, align 4
  %19 = insertvalue { ptr, i32 } poison, ptr %17, 0
  %20 = insertvalue { ptr, i32 } %19, i32 %18, 1
  resume { ptr, i32 } %20
}