; Function Attrs: mustprogress nofree nounwind uwtable
define dso_local noundef nonnull align 1 dereferenceable(1) ptr @_ZN8simdjson29get_available_implementationsEv() local_unnamed_addr #13 personality ptr @__gxx_personality_v0 {
  %1 = load atomic i8, ptr @_ZGVZN8simdjson29get_available_implementationsEvE25available_implementations acquire, align 8
  %2 = icmp eq i8 %1, 0
  br i1 %2, label %3, label %7, !prof !51

3:                                                ; preds = %0
  %4 = tail call i32 @__cxa_guard_acquire(ptr nonnull @_ZGVZN8simdjson29get_available_implementationsEvE25available_implementations) #45
  %.not = icmp eq i32 %4, 0
  br i1 %.not, label %7, label %5

5:                                                ; preds = %3
  %6 = tail call ptr @llvm.invariant.start.p0(i64 1, ptr nonnull @_ZZN8simdjson29get_available_implementationsEvE25available_implementations)
  tail call void @__cxa_guard_release(ptr nonnull @_ZGVZN8simdjson29get_available_implementationsEvE25available_implementations) #45
  br label %7

7:                                                ; preds = %5, %3, %0
  ret ptr @_ZZN8simdjson29get_available_implementationsEvE25available_implementations
}